target datalayout = "e-m:e-p270:32:32-p271:32:32-p272:64:64-i64:64-i128:128-f80:128-n8:16:32:64-S128"
target triple = "x86_64-pc-linux-gnu"

%struct.FunctionCallInfoBaseData = type { ptr, ptr, ptr, i32, i8, i16, [0 x %struct.NullableDatum] }
%struct.NullableDatum = type { i64, i8 }

@.str.2 = private unnamed_addr constant [6 x i8] c"int.c\00", align 1
@.str.7 = private unnamed_addr constant [21 x i8] c"integer out of range\00", align 1
@.str.8 = private unnamed_addr constant [17 x i8] c"division by zero\00", align 1
@__func__.int4div = private unnamed_addr constant [8 x i8] c"int4div\00", align 1

; Function Attrs: inlinehint nounwind uwtable
define internal i64 @Int32GetDatum(i32 noundef %0) #2 {
  %2 = alloca i32, align 4
  store i32 %0, ptr %2, align 4
  %3 = load i32, ptr %2, align 4
  %4 = sext i32 %3 to i64
  ret i64 %4
}

; Function Attrs: inlinehint nounwind uwtable
define internal i32 @DatumGetInt32(i64 noundef %0) #2 {
  %2 = alloca i64, align 8
  store i64 %0, ptr %2, align 8
  %3 = load i64, ptr %2, align 8
  %4 = trunc i64 %3 to i32
  ret i32 %4
}

; Function Attrs: nounwind uwtable
define dso_local i64 @int4div(ptr noundef %0) #0 {
  %2 = alloca i64, align 8
  %3 = alloca ptr, align 8
  %4 = alloca i32, align 4
  %5 = alloca i32, align 4
  %6 = alloca i32, align 4
  %7 = alloca i32, align 4
  store ptr %0, ptr %3, align 8
  call void @llvm.lifetime.start.p0(i64 4, ptr %4) #10
  %8 = load ptr, ptr %3, align 8
  %9 = getelementptr inbounds nuw %struct.FunctionCallInfoBaseData, ptr %8, i32 0, i32 6
  %10 = getelementptr inbounds [0 x %struct.NullableDatum], ptr %9, i64 0, i64 0
  %11 = getelementptr inbounds nuw %struct.NullableDatum, ptr %10, i32 0, i32 0
  %12 = load i64, ptr %11, align 8
  %13 = call i32 @DatumGetInt32(i64 noundef %12)
  store i32 %13, ptr %4, align 4
  call void @llvm.lifetime.start.p0(i64 4, ptr %5) #10
  %14 = load ptr, ptr %3, align 8
  %15 = getelementptr inbounds nuw %struct.FunctionCallInfoBaseData, ptr %14, i32 0, i32 6
  %16 = getelementptr inbounds [0 x %struct.NullableDatum], ptr %15, i64 0, i64 1
  %17 = getelementptr inbounds nuw %struct.NullableDatum, ptr %16, i32 0, i32 0
  %18 = load i64, ptr %17, align 8
  %19 = call i32 @DatumGetInt32(i64 noundef %18)
  store i32 %19, ptr %5, align 4
  call void @llvm.lifetime.start.p0(i64 4, ptr %6) #10
  %20 = load i32, ptr %5, align 4
  %21 = icmp eq i32 %20, 0
  br i1 %21, label %22, label %39

22:                                               ; preds = %1
  br label %23

23:                                               ; preds = %22
  br i1 true, label %24, label %26

24:                                               ; preds = %23
  %25 = call zeroext i1 @errstart_cold(i32 noundef 21, ptr noundef null) #12
  br i1 %25, label %28, label %31

26:                                               ; preds = %23
  %27 = call zeroext i1 @errstart(i32 noundef 21, ptr noundef null)
  br i1 %27, label %28, label %31

28:                                               ; preds = %26, %24
  %29 = call i32 @errcode(i32 noundef 33816706)
  %30 = call i32 (ptr, ...) @errmsg(ptr noundef @.str.8)
  call void @errfinish(ptr noundef @.str.2, i32 noundef 843, ptr noundef @__func__.int4div)
  br label %31

31:                                               ; preds = %28, %26, %24
  unreachable

32:                                               ; No predecessors!
  br label %33

33:                                               ; preds = %32
  br label %34

34:                                               ; preds = %33
  %35 = load ptr, ptr %3, align 8
  %36 = getelementptr inbounds nuw %struct.FunctionCallInfoBaseData, ptr %35, i32 0, i32 4
  store i8 1, ptr %36, align 4
  store i64 0, ptr %2, align 8
  store i32 1, ptr %7, align 4
  br label %74

37:                                               ; No predecessors!
  br label %38

38:                                               ; preds = %37
  br label %39

39:                                               ; preds = %38, %1
  %40 = load i32, ptr %5, align 4
  %41 = icmp eq i32 %40, -1
  br i1 %41, label %42, label %68

42:                                               ; preds = %39
  %43 = load i32, ptr %4, align 4
  %44 = icmp eq i32 %43, -2147483648
  %45 = zext i1 %44 to i32
  %46 = icmp ne i32 %45, 0
  %47 = zext i1 %46 to i32
  %48 = sext i32 %47 to i64
  %49 = call i64 @llvm.expect.i64(i64 %48, i64 0)
  %50 = icmp ne i64 %49, 0
  br i1 %50, label %51, label %63

51:                                               ; preds = %42
  br label %52

52:                                               ; preds = %51
  br i1 true, label %53, label %55

53:                                               ; preds = %52
  %54 = call zeroext i1 @errstart_cold(i32 noundef 21, ptr noundef null) #12
  br i1 %54, label %57, label %60

55:                                               ; preds = %52
  %56 = call zeroext i1 @errstart(i32 noundef 21, ptr noundef null)
  br i1 %56, label %57, label %60

57:                                               ; preds = %55, %53
  %58 = call i32 @errcode(i32 noundef 50331778)
  %59 = call i32 (ptr, ...) @errmsg(ptr noundef @.str.7)
  call void @errfinish(ptr noundef @.str.2, i32 noundef 859, ptr noundef @__func__.int4div)
  br label %60

60:                                               ; preds = %57, %55, %53
  unreachable

61:                                               ; No predecessors!
  br label %62

62:                                               ; preds = %61
  br label %63

63:                                               ; preds = %62, %42
  %64 = load i32, ptr %4, align 4
  %65 = sub i32 0, %64
  store i32 %65, ptr %6, align 4
  %66 = load i32, ptr %6, align 4
  %67 = call i64 @Int32GetDatum(i32 noundef %66)
  store i64 %67, ptr %2, align 8
  store i32 1, ptr %7, align 4
  br label %74

68:                                               ; preds = %39
  %69 = load i32, ptr %4, align 4
  %70 = load i32, ptr %5, align 4
  %71 = sdiv i32 %69, %70
  store i32 %71, ptr %6, align 4
  %72 = load i32, ptr %6, align 4
  %73 = call i64 @Int32GetDatum(i32 noundef %72)
  store i64 %73, ptr %2, align 8
  store i32 1, ptr %7, align 4
  br label %74

74:                                               ; preds = %68, %63, %34
  call void @llvm.lifetime.end.p0(i64 4, ptr %6) #10
  call void @llvm.lifetime.end.p0(i64 4, ptr %5) #10
  call void @llvm.lifetime.end.p0(i64 4, ptr %4) #10
  %75 = load i64, ptr %2, align 8
  ret i64 %75
}