; Function Attrs: nounwind uwtable
define dso_local range(i64 -2147483648, 2147483648) i64 @int4div(ptr noundef readonly captures(none) %0) local_unnamed_addr #0 {
  %2 = getelementptr inbounds nuw i8, ptr %0, i64 32
  %3 = load i64, ptr %2, align 8
  %4 = trunc i64 %3 to i32
  %5 = getelementptr inbounds nuw i8, ptr %0, i64 48
  %6 = load i64, ptr %5, align 8
  %7 = trunc i64 %6 to i32
  switch i32 %7, label %20 [
    i32 0, label %8
    i32 -1, label %12
  ]

8:                                                ; preds = %1
  %9 = tail call zeroext i1 @errstart_cold(i32 noundef 21, ptr noundef null) #15
  tail call void @llvm.assume(i1 %9)
  %10 = tail call i32 @errcode(i32 noundef 33816706) #13
  %11 = tail call i32 (ptr, ...) @errmsg(ptr noundef nonnull @.str.8) #13
  tail call void @errfinish(ptr noundef nonnull @.str.2, i32 noundef 843, ptr noundef nonnull @__func__.int4div) #13
  unreachable

12:                                               ; preds = %1
  %13 = icmp eq i32 %4, -2147483648
  br i1 %13, label %14, label %18, !prof !14

14:                                               ; preds = %12
  %15 = tail call zeroext i1 @errstart_cold(i32 noundef 21, ptr noundef null) #15
  tail call void @llvm.assume(i1 %15)
  %16 = tail call i32 @errcode(i32 noundef 50331778) #13
  %17 = tail call i32 (ptr, ...) @errmsg(ptr noundef nonnull @.str.7) #13
  tail call void @errfinish(ptr noundef nonnull @.str.2, i32 noundef 859, ptr noundef nonnull @__func__.int4div) #13
  unreachable

18:                                               ; preds = %12
  %.neg = mul i64 %3, -4294967296
  %19 = ashr exact i64 %.neg, 32
  br label %23

20:                                               ; preds = %1
  %21 = sdiv i32 %4, %7
  %22 = sext i32 %21 to i64
  br label %23

23:                                               ; preds = %20, %18
  %.0 = phi i64 [ %19, %18 ], [ %22, %20 ]
  ret i64 %.0
}